target datalayout = "e-m:e-p270:32:32-p271:32:32-p272:64:64-i64:64-i128:128-f80:128-n8:16:32:64-S128"
target triple = "x86_64-pc-linux-gnu"

%struct.Vec_Int_t_ = type { i32, i32, ptr }
%struct.Vec_Mem_t_ = type { i32, i32, i32, i32, i32, i32, ptr, ptr, ptr }
%struct.timespec = type { i64, i64 }

@.str.3 = private unnamed_addr constant [5 x i8] c"Time\00", align 1
@stdout = external global ptr, align 8
@.str.6 = private unnamed_addr constant [3 x i8] c"wb\00", align 1
@.str.21 = private unnamed_addr constant [12 x i8] c"npn%d%d.ttd\00", align 1
@.str.22 = private unnamed_addr constant [69 x i8] c"Dumped file \22%s\22 with %10d classes after exploring %10d frontiers.  \00", align 1
@.str.34 = private unnamed_addr constant [11 x i8] c"%9.2f sec\0A\00", align 1
@.str.45 = private unnamed_addr constant [5 x i8] c"%s =\00", align 1

; Function Attrs: inlinehint nounwind uwtable
define internal void @Abc_PrintTime(i32 noundef %0, ptr noundef %1, i64 noundef %2) #4 {
  %4 = alloca i32, align 4
  %5 = alloca ptr, align 8
  %6 = alloca i64, align 8
  store i32 %0, ptr %4, align 4, !tbaa !3
  store ptr %1, ptr %5, align 8, !tbaa !26
  store i64 %2, ptr %6, align 8, !tbaa !7
  %7 = load ptr, ptr %5, align 8, !tbaa !26
  call void (i32, ptr, ...) @Abc_Print(i32 noundef 1, ptr noundef @.str.45, ptr noundef %7)
  %8 = load i64, ptr %6, align 8, !tbaa !7
  %9 = sitofp i64 %8 to double
  %10 = fmul double 1.000000e+00, %9
  %11 = fdiv double %10, 1.000000e+06
  call void (i32, ptr, ...) @Abc_Print(i32 noundef 1, ptr noundef @.str.34, double noundef %11)
  ret void
}

; Function Attrs: inlinehint nounwind uwtable
define internal i64 @Abc_Clock() #4 {
  %1 = alloca i64, align 8
  %2 = alloca %struct.timespec, align 8
  %3 = alloca i32, align 4
  %4 = alloca i64, align 8
  call void @llvm.lifetime.start.p0(i64 16, ptr %2) #12
  %5 = call i32 @clock_gettime(i32 noundef 1, ptr noundef %2) #12
  %6 = icmp slt i32 %5, 0
  br i1 %6, label %7, label %8

7:                                                ; preds = %0
  store i64 -1, ptr %1, align 8
  store i32 1, ptr %3, align 4
  br label %19

8:                                                ; preds = %0
  call void @llvm.lifetime.start.p0(i64 8, ptr %4) #12
  %9 = getelementptr inbounds nuw %struct.timespec, ptr %2, i32 0, i32 0
  %10 = load i64, ptr %9, align 8, !tbaa !121
  %11 = mul nsw i64 %10, 1000000
  store i64 %11, ptr %4, align 8, !tbaa !7
  %12 = getelementptr inbounds nuw %struct.timespec, ptr %2, i32 0, i32 1
  %13 = load i64, ptr %12, align 8, !tbaa !123
  %14 = mul nsw i64 %13, 1000000
  %15 = sdiv i64 %14, 1000000000
  %16 = load i64, ptr %4, align 8, !tbaa !7
  %17 = add nsw i64 %16, %15
  store i64 %17, ptr %4, align 8, !tbaa !7
  %18 = load i64, ptr %4, align 8, !tbaa !7
  store i64 %18, ptr %1, align 8
  store i32 1, ptr %3, align 4
  call void @llvm.lifetime.end.p0(i64 8, ptr %4) #12
  br label %19

19:                                               ; preds = %8, %7
  call void @llvm.lifetime.end.p0(i64 16, ptr %2) #12
  %20 = load i64, ptr %1, align 8
  ret i64 %20
}

; Function Attrs: inlinehint nounwind uwtable
define internal i32 @Vec_IntSize(ptr noundef %0) #4 {
  %2 = alloca ptr, align 8
  store ptr %0, ptr %2, align 8, !tbaa !14
  %3 = load ptr, ptr %2, align 8, !tbaa !14
  %4 = getelementptr inbounds nuw %struct.Vec_Int_t_, ptr %3, i32 0, i32 1
  %5 = load i32, ptr %4, align 4, !tbaa !22
  ret i32 %5
}

; Function Attrs: inlinehint nounwind uwtable
define internal ptr @Vec_IntArray(ptr noundef %0) #4 {
  %2 = alloca ptr, align 8
  store ptr %0, ptr %2, align 8, !tbaa !14
  %3 = load ptr, ptr %2, align 8, !tbaa !14
  %4 = getelementptr inbounds nuw %struct.Vec_Int_t_, ptr %3, i32 0, i32 2
  %5 = load ptr, ptr %4, align 8, !tbaa !25
  ret ptr %5
}

; Function Attrs: inlinehint nounwind uwtable
define internal ptr @Vec_MemReadEntry(ptr noundef %0, i32 noundef %1) #4 {
  %3 = alloca ptr, align 8
  %4 = alloca i32, align 4
  store ptr %0, ptr %3, align 8, !tbaa !53
  store i32 %1, ptr %4, align 4, !tbaa !3
  %5 = load ptr, ptr %3, align 8, !tbaa !53
  %6 = getelementptr inbounds nuw %struct.Vec_Mem_t_, ptr %5, i32 0, i32 6
  %7 = load ptr, ptr %6, align 8, !tbaa !62
  %8 = load i32, ptr %4, align 4, !tbaa !3
  %9 = load ptr, ptr %3, align 8, !tbaa !53
  %10 = getelementptr inbounds nuw %struct.Vec_Mem_t_, ptr %9, i32 0, i32 2
  %11 = load i32, ptr %10, align 8, !tbaa !65
  %12 = ashr i32 %8, %11
  %13 = sext i32 %12 to i64
  %14 = getelementptr inbounds ptr, ptr %7, i64 %13
  %15 = load ptr, ptr %14, align 8, !tbaa !12
  %16 = load ptr, ptr %3, align 8, !tbaa !53
  %17 = getelementptr inbounds nuw %struct.Vec_Mem_t_, ptr %16, i32 0, i32 0
  %18 = load i32, ptr %17, align 8, !tbaa !66
  %19 = load i32, ptr %4, align 4, !tbaa !3
  %20 = load ptr, ptr %3, align 8, !tbaa !53
  %21 = getelementptr inbounds nuw %struct.Vec_Mem_t_, ptr %20, i32 0, i32 3
  %22 = load i32, ptr %21, align 4, !tbaa !67
  %23 = and i32 %19, %22
  %24 = mul nsw i32 %18, %23
  %25 = sext i32 %24 to i64
  %26 = getelementptr inbounds i64, ptr %15, i64 %25
  ret ptr %26
}

; Function Attrs: inlinehint nounwind uwtable
define internal i32 @Vec_MemEntryNum(ptr noundef %0) #4 {
  %2 = alloca ptr, align 8
  store ptr %0, ptr %2, align 8, !tbaa !53
  %3 = load ptr, ptr %2, align 8, !tbaa !53
  %4 = getelementptr inbounds nuw %struct.Vec_Mem_t_, ptr %3, i32 0, i32 1
  %5 = load i32, ptr %4, align 4, !tbaa !73
  ret i32 %5
}

; Function Attrs: inlinehint nounwind uwtable
define internal i32 @Abc_TtWordNum(i32 noundef %0) #4 {
  %2 = alloca i32, align 4
  store i32 %0, ptr %2, align 4, !tbaa !3
  %3 = load i32, ptr %2, align 4, !tbaa !3
  %4 = icmp sle i32 %3, 6
  br i1 %4, label %5, label %6

5:                                                ; preds = %1
  br label %10

6:                                                ; preds = %1
  %7 = load i32, ptr %2, align 4, !tbaa !3
  %8 = sub nsw i32 %7, 6
  %9 = shl i32 1, %8
  br label %10

10:                                               ; preds = %6, %5
  %11 = phi i32 [ 1, %5 ], [ %9, %6 ]
  ret i32 %11
}

; Function Attrs: nounwind uwtable
define void @Dau_TablesSave(i32 noundef %0, i32 noundef %1, ptr noundef %2, ptr noundef %3, i32 noundef %4, i64 noundef %5) #0 {
  %7 = alloca i32, align 4
  %8 = alloca i32, align 4
  %9 = alloca ptr, align 8
  %10 = alloca ptr, align 8
  %11 = alloca i32, align 4
  %12 = alloca i64, align 8
  %13 = alloca ptr, align 8
  %14 = alloca [100 x i8], align 16
  %15 = alloca i32, align 4
  %16 = alloca i32, align 4
  store i32 %0, ptr %7, align 4, !tbaa !3
  store i32 %1, ptr %8, align 4, !tbaa !3
  store ptr %2, ptr %9, align 8, !tbaa !53
  store ptr %3, ptr %10, align 8, !tbaa !14
  store i32 %4, ptr %11, align 4, !tbaa !3
  store i64 %5, ptr %12, align 8, !tbaa !7
  call void @llvm.lifetime.start.p0(i64 8, ptr %13) #12
  call void @llvm.lifetime.start.p0(i64 100, ptr %14) #12
  call void @llvm.lifetime.start.p0(i64 4, ptr %15) #12
  call void @llvm.lifetime.start.p0(i64 4, ptr %16) #12
  %17 = load i32, ptr %7, align 4, !tbaa !3
  %18 = call i32 @Abc_TtWordNum(i32 noundef %17)
  store i32 %18, ptr %16, align 4, !tbaa !3
  %19 = getelementptr inbounds [100 x i8], ptr %14, i64 0, i64 0
  %20 = load i32, ptr %7, align 4, !tbaa !3
  %21 = load i32, ptr %8, align 4, !tbaa !3
  %22 = call i32 (ptr, ptr, ...) @sprintf(ptr noundef %19, ptr noundef @.str.21, i32 noundef %20, i32 noundef %21) #12
  %23 = getelementptr inbounds [100 x i8], ptr %14, i64 0, i64 0
  %24 = call noalias ptr @fopen(ptr noundef %23, ptr noundef @.str.6)
  store ptr %24, ptr %13, align 8, !tbaa !16
  store i32 0, ptr %15, align 4, !tbaa !3
  br label %25

25:                                               ; preds = %38, %6
  %26 = load i32, ptr %15, align 4, !tbaa !3
  %27 = load ptr, ptr %9, align 8, !tbaa !53
  %28 = call i32 @Vec_MemEntryNum(ptr noundef %27)
  %29 = icmp slt i32 %26, %28
  br i1 %29, label %30, label %41

30:                                               ; preds = %25
  %31 = load ptr, ptr %9, align 8, !tbaa !53
  %32 = load i32, ptr %15, align 4, !tbaa !3
  %33 = call ptr @Vec_MemReadEntry(ptr noundef %31, i32 noundef %32)
  %34 = load i32, ptr %16, align 4, !tbaa !3
  %35 = sext i32 %34 to i64
  %36 = load ptr, ptr %13, align 8, !tbaa !16
  %37 = call i64 @fwrite(ptr noundef %33, i64 noundef 8, i64 noundef %35, ptr noundef %36)
  br label %38

38:                                               ; preds = %30
  %39 = load i32, ptr %15, align 4, !tbaa !3
  %40 = add nsw i32 %39, 1
  store i32 %40, ptr %15, align 4, !tbaa !3
  br label %25, !llvm.loop !76

41:                                               ; preds = %25
  %42 = load ptr, ptr %10, align 8, !tbaa !14
  %43 = call ptr @Vec_IntArray(ptr noundef %42)
  %44 = load ptr, ptr %10, align 8, !tbaa !14
  %45 = call i32 @Vec_IntSize(ptr noundef %44)
  %46 = sext i32 %45 to i64
  %47 = load ptr, ptr %13, align 8, !tbaa !16
  %48 = call i64 @fwrite(ptr noundef %43, i64 noundef 4, i64 noundef %46, ptr noundef %47)
  %49 = load ptr, ptr %13, align 8, !tbaa !16
  %50 = call i32 @fclose(ptr noundef %49)
  %51 = getelementptr inbounds [100 x i8], ptr %14, i64 0, i64 0
  %52 = load ptr, ptr %10, align 8, !tbaa !14
  %53 = call i32 @Vec_IntSize(ptr noundef %52)
  %54 = load i32, ptr %11, align 4, !tbaa !3
  %55 = call i32 (ptr, ...) @printf(ptr noundef @.str.22, ptr noundef %51, i32 noundef %53, i32 noundef %54)
  %56 = call i64 @Abc_Clock()
  %57 = load i64, ptr %12, align 8, !tbaa !7
  %58 = sub nsw i64 %56, %57
  call void @Abc_PrintTime(i32 noundef 1, ptr noundef @.str.3, i64 noundef %58)
  %59 = load ptr, ptr @stdout, align 8, !tbaa !16
  %60 = call i32 @fflush(ptr noundef %59)
  call void @llvm.lifetime.end.p0(i64 4, ptr %16) #12
  call void @llvm.lifetime.end.p0(i64 4, ptr %15) #12
  call void @llvm.lifetime.end.p0(i64 100, ptr %14) #12
  call void @llvm.lifetime.end.p0(i64 8, ptr %13) #12
  ret void
}