; Function Attrs: nounwind uwtable
define void @Dau_TablesSave(i32 noundef %0, i32 noundef %1, ptr noundef readonly captures(none) %2, ptr noundef readonly captures(none) %3, i32 noundef %4, i64 noundef %5) local_unnamed_addr #0 {
  %7 = alloca %struct.timespec, align 8
  %8 = alloca [100 x i8], align 16
  call void @llvm.lifetime.start.p0(i64 100, ptr nonnull %8) #26
  %9 = call i32 (ptr, ptr, ...) @sprintf(ptr noundef nonnull dereferenceable(1) %8, ptr noundef nonnull dereferenceable(1) @.str.21, i32 noundef %0, i32 noundef %1) #26
  %10 = call noalias ptr @fopen(ptr noundef nonnull %8, ptr noundef nonnull @.str.6)
  %11 = getelementptr i8, ptr %2, i64 4
  %.val1719 = load i32, ptr %11, align 4, !tbaa !75
  %12 = icmp sgt i32 %.val1719, 0
  br i1 %12, label %.lr.ph, label %._crit_edge

.lr.ph:                                           ; preds = %6
  %13 = icmp slt i32 %0, 7
  %14 = add nsw i32 %0, -6
  %15 = shl nuw i32 1, %14
  %16 = select i1 %13, i32 1, i32 %15
  %17 = getelementptr inbounds nuw i8, ptr %2, i64 24
  %18 = getelementptr inbounds nuw i8, ptr %2, i64 8
  %19 = getelementptr inbounds nuw i8, ptr %2, i64 12
  %20 = sext i32 %16 to i64
  br label %21

21:                                               ; preds = %.lr.ph, %21
  %.020 = phi i32 [ 0, %.lr.ph ], [ %35, %21 ]
  %22 = load ptr, ptr %17, align 8, !tbaa !61
  %23 = load i32, ptr %18, align 8, !tbaa !65
  %24 = lshr i32 %.020, %23
  %25 = zext nneg i32 %24 to i64
  %26 = getelementptr inbounds nuw ptr, ptr %22, i64 %25
  %27 = load ptr, ptr %26, align 8, !tbaa !66
  %28 = load i32, ptr %2, align 8, !tbaa !67
  %29 = load i32, ptr %19, align 4, !tbaa !68
  %30 = and i32 %29, %.020
  %31 = mul nsw i32 %30, %28
  %32 = sext i32 %31 to i64
  %33 = getelementptr inbounds i64, ptr %27, i64 %32
  %34 = tail call i64 @fwrite(ptr noundef %33, i64 noundef 8, i64 noundef %20, ptr noundef %10)
  %35 = add nuw nsw i32 %.020, 1
  %.val17 = load i32, ptr %11, align 4, !tbaa !75
  %36 = icmp slt i32 %35, %.val17
  br i1 %36, label %21, label %._crit_edge, !llvm.loop !85

._crit_edge:                                      ; preds = %21, %6
  %37 = getelementptr i8, ptr %3, i64 8
  %.val18 = load ptr, ptr %37, align 8, !tbaa !15
  %38 = getelementptr i8, ptr %3, i64 4
  %.val16 = load i32, ptr %38, align 4, !tbaa !9
  %39 = sext i32 %.val16 to i64
  %40 = tail call i64 @fwrite(ptr noundef %.val18, i64 noundef 4, i64 noundef %39, ptr noundef %10)
  %41 = tail call i32 @fclose(ptr noundef %10)
  %.val = load i32, ptr %38, align 4, !tbaa !9
  %42 = call i32 (ptr, ...) @printf(ptr noundef nonnull dereferenceable(1) @.str.22, ptr noundef nonnull %8, i32 noundef %.val, i32 noundef %4)
  call void @llvm.lifetime.start.p0(i64 16, ptr nonnull %7) #26
  %43 = call i32 @clock_gettime(i32 noundef 1, ptr noundef nonnull %7) #26
  %44 = icmp slt i32 %43, 0
  br i1 %44, label %Abc_Clock.exit, label %45

45:                                               ; preds = %._crit_edge
  %46 = load i64, ptr %7, align 8, !tbaa !3
  %47 = mul nsw i64 %46, 1000000
  %48 = getelementptr inbounds nuw i8, ptr %7, i64 8
  %49 = load i64, ptr %48, align 8, !tbaa !8
  %50 = sdiv i64 %49, 1000
  %51 = add nsw i64 %50, %47
  br label %Abc_Clock.exit

Abc_Clock.exit:                                   ; preds = %._crit_edge, %45
  %.0.i = phi i64 [ %51, %45 ], [ -1, %._crit_edge ]
  call void @llvm.lifetime.end.p0(i64 16, ptr nonnull %7) #26
  %52 = sub nsw i64 %.0.i, %5
  call void (i32, ptr, ...) @Abc_Print(i32 poison, ptr noundef nonnull @.str.45, ptr noundef nonnull @.str.3)
  %53 = sitofp i64 %52 to double
  %54 = fdiv double %53, 1.000000e+06
  call void (i32, ptr, ...) @Abc_Print(i32 poison, ptr noundef nonnull @.str.34, double noundef %54)
  %55 = load ptr, ptr @stdout, align 8, !tbaa !16
  %56 = call i32 @fflush(ptr noundef %55)
  call void @llvm.lifetime.end.p0(i64 100, ptr nonnull %8) #26
  ret void
}